; Function Attrs: nounwind uwtable
define internal i32 @aes_cbc_cts_get_ctx_params(ptr noundef %0, ptr noundef %1) #0 {
  %3 = tail call ptr @OSSL_PARAM_locate(ptr noundef %1, ptr noundef nonnull @.str.1) #3
  %.not = icmp eq ptr %3, null
  br i1 %.not, label %11, label %4

4:                                                ; preds = %2
  %5 = getelementptr inbounds nuw i8, ptr %0, i64 104
  %6 = load i32, ptr %5, align 8, !tbaa !19
  %7 = tail call ptr @ossl_cipher_cbc_cts_mode_id2name(i32 noundef %6) #3
  %8 = icmp eq ptr %7, null
  br i1 %8, label %.critedge, label %9

9:                                                ; preds = %4
  %10 = tail call i32 @OSSL_PARAM_set_utf8_string(ptr noundef nonnull %3, ptr noundef nonnull %7) #3
  %.not13 = icmp eq i32 %10, 0
  br i1 %.not13, label %.critedge, label %11

.critedge:                                        ; preds = %9, %4
  tail call void @ERR_new() #3
  tail call void @ERR_set_debug(ptr noundef nonnull @.str.2, i32 noundef 56, ptr noundef nonnull @__func__.aes_cbc_cts_get_ctx_params) #3
  tail call void (i32, i32, ptr, ...) @ERR_set_error(i32 noundef 57, i32 noundef 104, ptr noundef null) #3
  br label %13

11:                                               ; preds = %9, %2
  %12 = tail call i32 @ossl_cipher_generic_get_ctx_params(ptr noundef %0, ptr noundef %1) #3
  br label %13

13:                                               ; preds = %.critedge, %11
  %.1 = phi i32 [ %12, %11 ], [ 0, %.critedge ]
  ret i32 %.1
}